; Function Attrs: nounwind uwtable
define dso_local i32 @slurmdb_ping(ptr noundef %0) local_unnamed_addr #0 {
  %2 = tail call ptr @slurm_xcalloc(i64 noundef 1, i64 noundef 176, i1 noundef zeroext true, i1 noundef zeroext false, ptr noundef nonnull @.str.2, i32 noundef 2291, ptr noundef nonnull @__func__.slurmdb_ping) #19
  %3 = load ptr, ptr getelementptr inbounds nuw (i8, ptr @slurm_conf, i64 248), align 8
  %4 = tail call ptr @xstrdup(ptr noundef %3) #19
  %5 = getelementptr inbounds nuw i8, ptr %2, i64 40
  store ptr %4, ptr %5, align 8
  %6 = getelementptr inbounds nuw i8, ptr %2, i64 64
  store i16 17, ptr %6, align 8
  %7 = getelementptr inbounds nuw i8, ptr %2, i64 72
  store i32 -1, ptr %7, align 8
  %8 = tail call ptr @xstrdup(ptr noundef %0) #19
  %9 = getelementptr inbounds nuw i8, ptr %2, i64 80
  store ptr %8, ptr %9, align 8
  %10 = load i16, ptr getelementptr inbounds nuw (i8, ptr @slurm_conf, i64 64), align 8
  %11 = getelementptr inbounds nuw i8, ptr %2, i64 88
  store i16 %10, ptr %11, align 8
  %12 = load i16, ptr getelementptr inbounds nuw (i8, ptr @slurm_conf, i64 744), align 8
  %13 = zext i16 %12 to i32
  %14 = mul nuw nsw i32 %13, 1000
  %15 = getelementptr inbounds nuw i8, ptr %2, i64 112
  store i32 %14, ptr %15, align 8
  %16 = tail call i32 @slurm_persist_conn_open(ptr noundef %2) #19
  tail call void @slurm_persist_conn_destroy(ptr noundef %2) #19
  ret i32 %16
}